target datalayout = "e-m:e-p270:32:32-p271:32:32-p272:64:64-i64:64-i128:128-f80:128-n8:16:32:64-S128"
target triple = "x86_64-pc-linux-gnu"

%struct.SDL_Pen = type { i32, ptr, %struct.SDL_PenInfo, [7 x float], float, float, i32, ptr }
%struct.SDL_PenInfo = type { i32, float, i32, i32, i32 }
%union.SDL_Event = type { %struct.SDL_MouseWheelEvent, [72 x i8] }
%struct.SDL_MouseWheelEvent = type { i32, i32, i64, i32, i32, float, float, i32, float, float, i32, i32 }
%struct.SDL_PenProximityEvent = type { i32, i32, i64, i32, i32 }

@pen_device_rwlock = internal global ptr null, align 8
@pen_device_count = internal global i32 0, align 4
@pen_devices = internal global ptr null, align 8
@.str.1 = private unnamed_addr constant [24 x i8] c"Invalid pen instance ID\00", align 1

; Function Attrs: nounwind uwtable
define internal ptr @FindPenByInstanceId(i32 noundef %0) #0 {
  %2 = alloca ptr, align 8
  %3 = alloca i32, align 4
  %4 = alloca i32, align 4
  %5 = alloca i32, align 4
  store i32 %0, ptr %3, align 4
  %6 = load i32, ptr %3, align 4
  %7 = icmp ne i32 %6, 0
  br i1 %7, label %8, label %35

8:                                                ; preds = %1
  call void @llvm.lifetime.start.p0(i64 4, ptr %4) #6
  store i32 0, ptr %4, align 4
  br label %9

9:                                                ; preds = %29, %8
  %10 = load i32, ptr %4, align 4
  %11 = load i32, ptr @pen_device_count, align 4
  %12 = icmp slt i32 %10, %11
  br i1 %12, label %14, label %13

13:                                               ; preds = %9
  store i32 2, ptr %5, align 4
  br label %32

14:                                               ; preds = %9
  %15 = load ptr, ptr @pen_devices, align 8
  %16 = load i32, ptr %4, align 4
  %17 = sext i32 %16 to i64
  %18 = getelementptr inbounds %struct.SDL_Pen, ptr %15, i64 %17
  %19 = getelementptr inbounds nuw %struct.SDL_Pen, ptr %18, i32 0, i32 0
  %20 = load i32, ptr %19, align 8
  %21 = load i32, ptr %3, align 4
  %22 = icmp eq i32 %20, %21
  br i1 %22, label %23, label %28

23:                                               ; preds = %14
  %24 = load ptr, ptr @pen_devices, align 8
  %25 = load i32, ptr %4, align 4
  %26 = sext i32 %25 to i64
  %27 = getelementptr inbounds %struct.SDL_Pen, ptr %24, i64 %26
  store ptr %27, ptr %2, align 8
  store i32 1, ptr %5, align 4
  br label %32

28:                                               ; preds = %14
  br label %29

29:                                               ; preds = %28
  %30 = load i32, ptr %4, align 4
  %31 = add nsw i32 %30, 1
  store i32 %31, ptr %4, align 4
  br label %9, !llvm.loop !7

32:                                               ; preds = %23, %13
  call void @llvm.lifetime.end.p0(i64 4, ptr %4) #6
  %33 = load i32, ptr %5, align 4
  switch i32 %33, label %39 [
    i32 2, label %34
    i32 1, label %37
  ]

34:                                               ; preds = %32
  br label %35

35:                                               ; preds = %34, %1
  %36 = call zeroext i1 (ptr, ...) @SDL_SetError_REAL(ptr noundef @.str.1)
  store ptr null, ptr %2, align 8
  br label %37

37:                                               ; preds = %35, %32
  %38 = load ptr, ptr %2, align 8
  ret ptr %38

39:                                               ; preds = %32
  unreachable
}

; Function Attrs: nounwind uwtable
define hidden void @SDL_RemovePenDevice(i64 noundef %0, i32 noundef %1) #0 {
  %3 = alloca i64, align 8
  %4 = alloca i32, align 4
  %5 = alloca ptr, align 8
  %6 = alloca i32, align 4
  %7 = alloca ptr, align 8
  %8 = alloca %union.SDL_Event, align 8
  store i64 %0, ptr %3, align 8
  store i32 %1, ptr %4, align 4
  %9 = load i32, ptr %4, align 4
  %10 = icmp ne i32 %9, 0
  br i1 %10, label %12, label %11

11:                                               ; preds = %2
  br label %88

12:                                               ; preds = %2
  %13 = load ptr, ptr @pen_device_rwlock, align 8
  call void @SDL_LockRWLockForWriting_REAL(ptr noundef %13)
  call void @llvm.lifetime.start.p0(i64 8, ptr %5) #6
  %14 = load i32, ptr %4, align 4
  %15 = call ptr @FindPenByInstanceId(i32 noundef %14)
  store ptr %15, ptr %5, align 8
  %16 = load ptr, ptr %5, align 8
  %17 = icmp ne ptr %16, null
  br i1 %17, label %18, label %74

18:                                               ; preds = %12
  %19 = load ptr, ptr %5, align 8
  %20 = getelementptr inbounds nuw %struct.SDL_Pen, ptr %19, i32 0, i32 1
  %21 = load ptr, ptr %20, align 8
  call void @SDL_free_REAL(ptr noundef %21)
  call void @llvm.lifetime.start.p0(i64 4, ptr %6) #6
  %22 = load ptr, ptr %5, align 8
  %23 = load ptr, ptr @pen_devices, align 8
  %24 = ptrtoint ptr %22 to i64
  %25 = ptrtoint ptr %23 to i64
  %26 = sub i64 %24, %25
  %27 = sdiv exact i64 %26, 88
  %28 = trunc i64 %27 to i32
  store i32 %28, ptr %6, align 4
  br label %29

29:                                               ; preds = %18
  br label %30

30:                                               ; preds = %29
  br label %31

31:                                               ; preds = %30
  %32 = load i32, ptr %6, align 4
  %33 = load i32, ptr @pen_device_count, align 4
  %34 = sub nsw i32 %33, 1
  %35 = icmp slt i32 %32, %34
  br i1 %35, label %36, label %52

36:                                               ; preds = %31
  %37 = load ptr, ptr @pen_devices, align 8
  %38 = load i32, ptr %6, align 4
  %39 = sext i32 %38 to i64
  %40 = getelementptr inbounds %struct.SDL_Pen, ptr %37, i64 %39
  %41 = load ptr, ptr @pen_devices, align 8
  %42 = load i32, ptr %6, align 4
  %43 = add nsw i32 %42, 1
  %44 = sext i32 %43 to i64
  %45 = getelementptr inbounds %struct.SDL_Pen, ptr %41, i64 %44
  %46 = load i32, ptr @pen_device_count, align 4
  %47 = load i32, ptr %6, align 4
  %48 = sub nsw i32 %46, %47
  %49 = sub nsw i32 %48, 1
  %50 = sext i32 %49 to i64
  %51 = mul i64 88, %50
  call void @llvm.memmove.p0.p0.i64(ptr align 8 %40, ptr align 8 %45, i64 %51, i1 false)
  br label %52

52:                                               ; preds = %36, %31
  br label %53

53:                                               ; preds = %52
  br label %54

54:                                               ; preds = %53
  br label %55

55:                                               ; preds = %54
  %56 = load i32, ptr @pen_device_count, align 4
  %57 = add nsw i32 %56, -1
  store i32 %57, ptr @pen_device_count, align 4
  %58 = load i32, ptr @pen_device_count, align 4
  %59 = icmp ne i32 %58, 0
  br i1 %59, label %60, label %71

60:                                               ; preds = %55
  call void @llvm.lifetime.start.p0(i64 8, ptr %7) #6
  %61 = load ptr, ptr @pen_devices, align 8
  %62 = load i32, ptr @pen_device_count, align 4
  %63 = sext i32 %62 to i64
  %64 = mul i64 88, %63
  %65 = call ptr @SDL_realloc_REAL(ptr noundef %61, i64 noundef %64) #7
  store ptr %65, ptr %7, align 8
  %66 = load ptr, ptr %7, align 8
  %67 = icmp ne ptr %66, null
  br i1 %67, label %68, label %70

68:                                               ; preds = %60
  %69 = load ptr, ptr %7, align 8
  store ptr %69, ptr @pen_devices, align 8
  br label %70

70:                                               ; preds = %68, %60
  call void @llvm.lifetime.end.p0(i64 8, ptr %7) #6
  br label %73

71:                                               ; preds = %55
  %72 = load ptr, ptr @pen_devices, align 8
  call void @SDL_free_REAL(ptr noundef %72)
  store ptr null, ptr @pen_devices, align 8
  br label %73

73:                                               ; preds = %71, %70
  call void @llvm.lifetime.end.p0(i64 4, ptr %6) #6
  br label %74

74:                                               ; preds = %73, %12
  %75 = load ptr, ptr @pen_device_rwlock, align 8
  call void @SDL_UnlockRWLock_REAL(ptr noundef %75)
  %76 = load ptr, ptr %5, align 8
  %77 = icmp ne ptr %76, null
  br i1 %77, label %78, label %87

78:                                               ; preds = %74
  %79 = call zeroext i1 @SDL_EventEnabled_REAL(i32 noundef 4865)
  br i1 %79, label %80, label %87

80:                                               ; preds = %78
  call void @llvm.lifetime.start.p0(i64 128, ptr %8) #6
  call void @llvm.memset.p0.i64(ptr align 8 %8, i8 0, i64 128, i1 false)
  %81 = getelementptr inbounds nuw %struct.SDL_PenProximityEvent, ptr %8, i32 0, i32 0
  store i32 4865, ptr %81, align 8
  %82 = load i64, ptr %3, align 8
  %83 = getelementptr inbounds nuw %struct.SDL_PenProximityEvent, ptr %8, i32 0, i32 2
  store i64 %82, ptr %83, align 8
  %84 = load i32, ptr %4, align 4
  %85 = getelementptr inbounds nuw %struct.SDL_PenProximityEvent, ptr %8, i32 0, i32 4
  store i32 %84, ptr %85, align 4
  %86 = call zeroext i1 @SDL_PushEvent_REAL(ptr noundef %8)
  call void @llvm.lifetime.end.p0(i64 128, ptr %8) #6
  br label %87

87:                                               ; preds = %80, %78, %74
  call void @llvm.lifetime.end.p0(i64 8, ptr %5) #6
  br label %88

88:                                               ; preds = %87, %11
  ret void
}