; Function Attrs: nounwind uwtable
define hidden void @SDL_RemovePenDevice(i64 noundef %0, i32 noundef %1) local_unnamed_addr #0 {
  %3 = alloca %union.SDL_Event, align 8
  %.not = icmp eq i32 %1, 0
  br i1 %.not, label %48, label %.preheader.i

.preheader.i:                                     ; preds = %2
  %4 = load ptr, ptr @pen_device_rwlock, align 8
  tail call void @SDL_LockRWLockForWriting_REAL(ptr noundef %4) #8
  %5 = load i32, ptr @pen_device_count, align 4
  %6 = icmp sgt i32 %5, 0
  br i1 %6, label %.lr.ph.i, label %.critedge

.lr.ph.i:                                         ; preds = %.preheader.i
  %7 = load ptr, ptr @pen_devices, align 8
  %wide.trip.count.i = zext nneg i32 %5 to i64
  br label %9

8:                                                ; preds = %9
  %indvars.iv.next.i = add nuw nsw i64 %indvars.iv.i, 1
  %exitcond.not.i = icmp eq i64 %indvars.iv.next.i, %wide.trip.count.i
  br i1 %exitcond.not.i, label %.critedge, label %9, !llvm.loop !7

9:                                                ; preds = %8, %.lr.ph.i
  %indvars.iv.i = phi i64 [ 0, %.lr.ph.i ], [ %indvars.iv.next.i, %8 ]
  %10 = getelementptr inbounds nuw %struct.SDL_Pen, ptr %7, i64 %indvars.iv.i
  %11 = load i32, ptr %10, align 8
  %12 = icmp eq i32 %11, %1
  br i1 %12, label %FindPenByInstanceId.exit, label %8

FindPenByInstanceId.exit:                         ; preds = %9
  %13 = getelementptr inbounds nuw i8, ptr %10, i64 8
  %14 = load ptr, ptr %13, align 8
  tail call void @SDL_free_REAL(ptr noundef %14) #8
  %15 = load ptr, ptr @pen_devices, align 8
  %16 = ptrtoint ptr %10 to i64
  %17 = ptrtoint ptr %15 to i64
  %18 = sub i64 %16, %17
  %19 = sdiv exact i64 %18, 88
  %20 = trunc i64 %19 to i32
  %21 = load i32, ptr @pen_device_count, align 4
  %22 = add nsw i32 %21, -1
  %23 = icmp sgt i32 %22, %20
  br i1 %23, label %24, label %33

24:                                               ; preds = %FindPenByInstanceId.exit
  %sext = shl i64 %19, 32
  %25 = ashr exact i64 %sext, 32
  %26 = getelementptr inbounds %struct.SDL_Pen, ptr %15, i64 %25
  %sext18 = add i64 %sext, 4294967296
  %27 = ashr exact i64 %sext18, 32
  %28 = getelementptr inbounds %struct.SDL_Pen, ptr %15, i64 %27
  %29 = xor i32 %20, -1
  %30 = add i32 %21, %29
  %31 = sext i32 %30 to i64
  %32 = mul nsw i64 %31, 88
  tail call void @llvm.memmove.p0.p0.i64(ptr align 8 %26, ptr align 8 %28, i64 %32, i1 false)
  br label %33

33:                                               ; preds = %FindPenByInstanceId.exit, %24
  store i32 %22, ptr @pen_device_count, align 4
  %.not19 = icmp eq i32 %22, 0
  br i1 %.not19, label %38, label %34

34:                                               ; preds = %33
  %35 = sext i32 %22 to i64
  %36 = mul nsw i64 %35, 88
  %37 = tail call ptr @SDL_realloc_REAL(ptr noundef %15, i64 noundef %36) #9
  %.not20 = icmp eq ptr %37, null
  br i1 %.not20, label %39, label %.sink.split

38:                                               ; preds = %33
  tail call void @SDL_free_REAL(ptr noundef %15) #8
  br label %.sink.split

.sink.split:                                      ; preds = %34, %38
  %.sink = phi ptr [ null, %38 ], [ %37, %34 ]
  store ptr %.sink, ptr @pen_devices, align 8
  br label %39

39:                                               ; preds = %.sink.split, %34
  %40 = load ptr, ptr @pen_device_rwlock, align 8
  tail call void @SDL_UnlockRWLock_REAL(ptr noundef %40) #8
  %41 = tail call zeroext i1 @SDL_EventEnabled_REAL(i32 noundef 4865) #8
  br i1 %41, label %42, label %48

42:                                               ; preds = %39
  call void @llvm.lifetime.start.p0(i64 128, ptr nonnull %3) #8
  call void @llvm.memset.p0.i64(ptr noundef nonnull align 8 dereferenceable(128) %3, i8 0, i64 128, i1 false)
  store i32 4865, ptr %3, align 8
  %43 = getelementptr inbounds nuw i8, ptr %3, i64 8
  store i64 %0, ptr %43, align 8
  %44 = getelementptr inbounds nuw i8, ptr %3, i64 20
  store i32 %1, ptr %44, align 4
  %45 = call zeroext i1 @SDL_PushEvent_REAL(ptr noundef nonnull %3) #8
  call void @llvm.lifetime.end.p0(i64 128, ptr nonnull %3) #8
  br label %48

.critedge:                                        ; preds = %8, %.preheader.i
  %46 = tail call zeroext i1 (ptr, ...) @SDL_SetError_REAL(ptr noundef nonnull @.str.1) #8
  %47 = load ptr, ptr @pen_device_rwlock, align 8
  tail call void @SDL_UnlockRWLock_REAL(ptr noundef %47) #8
  br label %48

48:                                               ; preds = %39, %42, %.critedge, %2
  ret void
}